target datalayout = "e-m:e-p270:32:32-p271:32:32-p272:64:64-i64:64-i128:128-f80:128-n8:16:32:64-S128"
target triple = "x86_64-unknown-linux-gnu"

%"class.icu_75::number::SimpleNumberFormatter" = type { i32, ptr, ptr, ptr }

; Function Attrs: mustprogress nounwind uwtable
define internal noundef signext i8 @_ZL9U_FAILURE10UErrorCode(i32 noundef %code) #0 {
entry:
  %code.addr = alloca i32, align 4
  store i32 %code, ptr %code.addr, align 4
  %0 = load i32, ptr %code.addr, align 4
  %cmp = icmp sgt i32 %0, 0
  %conv = zext i1 %cmp to i8
  ret i8 %conv
}

; Function Attrs: mustprogress nounwind uwtable
define linkonce_odr void @_ZN6icu_756number21SimpleNumberFormatterC2Ev(ptr noundef nonnull align 8 dereferenceable(32) %this) unnamed_addr #0 comdat align 2 {
entry:
  %this.addr = alloca ptr, align 8
  store ptr %this, ptr %this.addr, align 8
  %this1 = load ptr, ptr %this.addr, align 8
  %fGroupingStrategy = getelementptr inbounds %"class.icu_75::number::SimpleNumberFormatter", ptr %this1, i32 0, i32 0
  store i32 2, ptr %fGroupingStrategy, align 8
  %fOwnedSymbols = getelementptr inbounds %"class.icu_75::number::SimpleNumberFormatter", ptr %this1, i32 0, i32 1
  store ptr null, ptr %fOwnedSymbols, align 8
  %fMicros = getelementptr inbounds %"class.icu_75::number::SimpleNumberFormatter", ptr %this1, i32 0, i32 2
  store ptr null, ptr %fMicros, align 8
  %fPatternModifier = getelementptr inbounds %"class.icu_75::number::SimpleNumberFormatter", ptr %this1, i32 0, i32 3
  store ptr null, ptr %fPatternModifier, align 8
  ret void
}

; Function Attrs: mustprogress uwtable
define void @_ZN6icu_756number21SimpleNumberFormatter28forLocaleAndGroupingStrategyERKNS_6LocaleE23UNumberGroupingStrategyR10UErrorCode(ptr noalias sret(%"class.icu_75::number::SimpleNumberFormatter") align 8 %agg.result, ptr noundef nonnull align 8 dereferenceable(217) %locale, i32 noundef %groupingStrategy, ptr noundef nonnull align 4 dereferenceable(4) %status) #1 align 2 personality ptr @__gxx_personality_v0 {
entry:
  %result.ptr = alloca ptr, align 8
  %locale.addr = alloca ptr, align 8
  %groupingStrategy.addr = alloca i32, align 4
  %status.addr = alloca ptr, align 8
  %nrvo = alloca i1, align 1
  %cleanup.cond = alloca i1, align 1
  %exn.slot = alloca ptr, align 8
  %ehselector.slot = alloca i32, align 4
  %cleanup.dest.slot = alloca i32, align 4
  store ptr %agg.result, ptr %result.ptr, align 8
  store ptr %locale, ptr %locale.addr, align 8
  store i32 %groupingStrategy, ptr %groupingStrategy.addr, align 4
  store ptr %status, ptr %status.addr, align 8
  store i1 false, ptr %nrvo, align 1
  call void @_ZN6icu_756number21SimpleNumberFormatterC2Ev(ptr noundef nonnull align 8 dereferenceable(32) %agg.result) #9
  %call = call noundef ptr @_ZN6icu_757UMemorynwEm(i64 noundef 2888) #9
  %new.isnull = icmp eq ptr %call, null
  store i1 false, ptr %cleanup.cond, align 1
  br i1 %new.isnull, label %new.cont, label %new.notnull

new.notnull:                                      ; preds = %entry
  store i1 true, ptr %cleanup.cond, align 1
  %0 = load ptr, ptr %locale.addr, align 8
  %1 = load ptr, ptr %status.addr, align 8
  invoke void @_ZN6icu_7520DecimalFormatSymbolsC1ERKNS_6LocaleER10UErrorCode(ptr noundef nonnull align 8 dereferenceable(2883) %call, ptr noundef nonnull align 8 dereferenceable(217) %0, ptr noundef nonnull align 4 dereferenceable(4) %1)
          to label %invoke.cont unwind label %lpad

invoke.cont:                                      ; preds = %new.notnull
  br label %new.cont

new.cont:                                         ; preds = %invoke.cont, %entry
  %2 = phi ptr [ %call, %invoke.cont ], [ null, %entry ]
  %fOwnedSymbols = getelementptr inbounds %"class.icu_75::number::SimpleNumberFormatter", ptr %agg.result, i32 0, i32 1
  store ptr %2, ptr %fOwnedSymbols, align 8
  %3 = load ptr, ptr %status.addr, align 8
  %4 = load i32, ptr %3, align 4
  %call3 = invoke noundef signext i8 @_ZL9U_FAILURE10UErrorCode(i32 noundef %4)
          to label %invoke.cont2 unwind label %lpad1

invoke.cont2:                                     ; preds = %new.cont
  %tobool = icmp ne i8 %call3, 0
  br i1 %tobool, label %if.then, label %if.end

if.then:                                          ; preds = %invoke.cont2
  store i1 true, ptr %nrvo, align 1
  store i32 1, ptr %cleanup.dest.slot, align 4
  br label %cleanup

lpad:                                             ; preds = %new.notnull
  %5 = landingpad { ptr, i32 }
          cleanup
  %6 = extractvalue { ptr, i32 } %5, 0
  store ptr %6, ptr %exn.slot, align 8
  %7 = extractvalue { ptr, i32 } %5, 1
  store i32 %7, ptr %ehselector.slot, align 4
  %cleanup.is_active = load i1, ptr %cleanup.cond, align 1
  br i1 %cleanup.is_active, label %cleanup.action, label %cleanup.done

cleanup.action:                                   ; preds = %lpad
  call void @_ZN6icu_757UMemorydlEPv(ptr noundef %call) #9
  br label %cleanup.done

cleanup.done:                                     ; preds = %cleanup.action, %lpad
  br label %ehcleanup

lpad1:                                            ; preds = %if.end6, %new.cont
  %8 = landingpad { ptr, i32 }
          cleanup
  %9 = extractvalue { ptr, i32 } %8, 0
  store ptr %9, ptr %exn.slot, align 8
  %10 = extractvalue { ptr, i32 } %8, 1
  store i32 %10, ptr %ehselector.slot, align 4
  br label %ehcleanup

if.end:                                           ; preds = %invoke.cont2
  %fOwnedSymbols4 = getelementptr inbounds %"class.icu_75::number::SimpleNumberFormatter", ptr %agg.result, i32 0, i32 1
  %11 = load ptr, ptr %fOwnedSymbols4, align 8
  %cmp = icmp eq ptr %11, null
  br i1 %cmp, label %if.then5, label %if.end6

if.then5:                                         ; preds = %if.end
  %12 = load ptr, ptr %status.addr, align 8
  store i32 7, ptr %12, align 4
  store i1 true, ptr %nrvo, align 1
  store i32 1, ptr %cleanup.dest.slot, align 4
  br label %cleanup

if.end6:                                          ; preds = %if.end
  %13 = load ptr, ptr %locale.addr, align 8
  %fOwnedSymbols7 = getelementptr inbounds %"class.icu_75::number::SimpleNumberFormatter", ptr %agg.result, i32 0, i32 1
  %14 = load ptr, ptr %fOwnedSymbols7, align 8
  %15 = load i32, ptr %groupingStrategy.addr, align 4
  %16 = load ptr, ptr %status.addr, align 8
  invoke void @_ZN6icu_756number21SimpleNumberFormatter10initializeERKNS_6LocaleERKNS_20DecimalFormatSymbolsE23UNumberGroupingStrategyR10UErrorCode(ptr noundef nonnull align 8 dereferenceable(32) %agg.result, ptr noundef nonnull align 8 dereferenceable(217) %13, ptr noundef nonnull align 8 dereferenceable(2883) %14, i32 noundef %15, ptr noundef nonnull align 4 dereferenceable(4) %16)
          to label %invoke.cont8 unwind label %lpad1

invoke.cont8:                                     ; preds = %if.end6
  store i1 true, ptr %nrvo, align 1
  store i32 1, ptr %cleanup.dest.slot, align 4
  br label %cleanup

cleanup:                                          ; preds = %invoke.cont8, %if.then5, %if.then
  %nrvo.val = load i1, ptr %nrvo, align 1
  br i1 %nrvo.val, label %nrvo.skipdtor, label %nrvo.unused

nrvo.unused:                                      ; preds = %cleanup
  call void @_ZN6icu_756number21SimpleNumberFormatterD2Ev(ptr noundef nonnull align 8 dereferenceable(32) %agg.result) #9
  br label %nrvo.skipdtor

nrvo.skipdtor:                                    ; preds = %nrvo.unused, %cleanup
  ret void

ehcleanup:                                        ; preds = %lpad1, %cleanup.done
  call void @_ZN6icu_756number21SimpleNumberFormatterD2Ev(ptr noundef nonnull align 8 dereferenceable(32) %agg.result) #9
  br label %eh.resume

eh.resume:                                        ; preds = %ehcleanup
  %exn = load ptr, ptr %exn.slot, align 8
  %sel = load i32, ptr %ehselector.slot, align 4
  %lpad.val = insertvalue { ptr, i32 } poison, ptr %exn, 0
  %lpad.val9 = insertvalue { ptr, i32 } %lpad.val, i32 %sel, 1
  resume { ptr, i32 } %lpad.val9
}