; Function Attrs: mustprogress uwtable
define void @_ZN6icu_756number21SimpleNumberFormatter28forLocaleAndGroupingStrategyERKNS_6LocaleE23UNumberGroupingStrategyR10UErrorCode(ptr noalias sret(%"class.icu_75::number::SimpleNumberFormatter") align 8 %agg.result, ptr noundef nonnull align 8 dereferenceable(217) %locale, i32 noundef %groupingStrategy, ptr noundef nonnull align 4 dereferenceable(4) %status) local_unnamed_addr #1 align 2 personality ptr @__gxx_personality_v0 {
entry:
  store i32 2, ptr %agg.result, align 8
  %fOwnedSymbols.i = getelementptr inbounds i8, ptr %agg.result, i64 8
  tail call void @llvm.memset.p0.i64(ptr noundef nonnull align 8 dereferenceable(24) %fOwnedSymbols.i, i8 0, i64 24, i1 false)
  %call = tail call noundef ptr @_ZN6icu_757UMemorynwEm(i64 noundef 2888) #11
  %new.isnull = icmp eq ptr %call, null
  br i1 %new.isnull, label %new.cont.thread, label %new.notnull

new.notnull:                                      ; preds = %entry
  invoke void @_ZN6icu_7520DecimalFormatSymbolsC1ERKNS_6LocaleER10UErrorCode(ptr noundef nonnull align 8 dereferenceable(2883) %call, ptr noundef nonnull align 8 dereferenceable(217) %locale, ptr noundef nonnull align 4 dereferenceable(4) %status)
          to label %new.cont unwind label %lpad

new.cont:                                         ; preds = %new.notnull
  store ptr %call, ptr %fOwnedSymbols.i, align 8
  %0 = load i32, ptr %status, align 4
  %cmp.i = icmp slt i32 %0, 1
  br i1 %cmp.i, label %if.end6, label %nrvo.skipdtor

new.cont.thread:                                  ; preds = %entry
  store ptr null, ptr %fOwnedSymbols.i, align 8
  %1 = load i32, ptr %status, align 4
  %cmp.i6 = icmp slt i32 %1, 1
  br i1 %cmp.i6, label %if.then5, label %nrvo.skipdtor

lpad:                                             ; preds = %new.notnull
  %2 = landingpad { ptr, i32 }
          cleanup
  tail call void @_ZN6icu_757UMemorydlEPv(ptr noundef nonnull %call) #11
  br label %ehcleanup

lpad1:                                            ; preds = %if.end6
  %3 = landingpad { ptr, i32 }
          cleanup
  br label %ehcleanup

if.then5:                                         ; preds = %new.cont.thread
  store i32 7, ptr %status, align 4
  br label %nrvo.skipdtor

if.end6:                                          ; preds = %new.cont
  invoke void @_ZN6icu_756number21SimpleNumberFormatter10initializeERKNS_6LocaleERKNS_20DecimalFormatSymbolsE23UNumberGroupingStrategyR10UErrorCode(ptr noundef nonnull align 8 dereferenceable(32) %agg.result, ptr noundef nonnull align 8 dereferenceable(217) %locale, ptr noundef nonnull align 8 dereferenceable(2883) %call, i32 noundef %groupingStrategy, ptr noundef nonnull align 4 dereferenceable(4) %status)
          to label %nrvo.skipdtor unwind label %lpad1

nrvo.skipdtor:                                    ; preds = %new.cont.thread, %if.then5, %new.cont, %if.end6
  ret void

ehcleanup:                                        ; preds = %lpad, %lpad1
  %.pn = phi { ptr, i32 } [ %3, %lpad1 ], [ %2, %lpad ]
  tail call void @_ZN6icu_756number21SimpleNumberFormatterD2Ev(ptr noundef nonnull align 8 dereferenceable(32) %agg.result) #11
  resume { ptr, i32 } %.pn
}